target datalayout = "e-m:e-p270:32:32-p271:32:32-p272:64:64-i64:64-i128:128-f80:128-n8:16:32:64-S128"
target triple = "x86_64-pc-linux-gnu"

%struct._zend_executor_globals = type { %struct._zval_struct, %struct._zval_struct, [32 x ptr], ptr, ptr, %struct._zend_array, %struct._zend_array, ptr, i32, i8, %struct._zval_struct, i32, ptr, ptr, ptr, ptr, ptr, ptr, i64, ptr, ptr, i32, ptr, i32, i64, i32, i32, i32, i8, i8, %struct.zend_atomic_bool_s, %struct.zend_atomic_bool_s, ptr, i64, ptr, ptr, %struct._zend_array, %struct._zend_array, i32, i8, %struct._zval_struct, %struct._zval_struct, %struct._zend_stack, %struct._zend_stack, %struct._zend_stack, ptr, i32, i32, i64, ptr, ptr, ptr, %struct._zend_objects_store, %struct._zend_lazy_objects_store, ptr, ptr, ptr, [3 x %struct._zend_op], ptr, i8, i8, i64, i32, i32, ptr, [16 x %struct._HashTableIterator], ptr, %union._zend_function, %struct._zend_op, %struct._zend_array, i64, %struct.zend_get_gc_buffer, ptr, ptr, ptr, i64, i8, i32, ptr, ptr, i64, %struct._zend_call_stack, i64, i64, %struct._zend_strtod_state, [6 x ptr] }
%struct.zend_atomic_bool_s = type { i8 }
%struct._zval_struct = type { %union._zend_value, %union.anon, %union.anon.2 }
%union._zend_value = type { i64 }
%union.anon = type { i32 }
%union.anon.2 = type { i32 }
%struct._zend_stack = type { i32, i32, i32, ptr }
%struct._zend_objects_store = type { ptr, i32, i32, i32 }
%struct._zend_lazy_objects_store = type { %struct._zend_array }
%struct._HashTableIterator = type { ptr, i32, i32 }
%union._zend_function = type { %struct._zend_op_array }
%struct._zend_op_array = type { i8, [3 x i8], i32, ptr, ptr, ptr, i32, i32, ptr, ptr, ptr, ptr, i32, ptr, i32, i32, i32, ptr, ptr, ptr, ptr, ptr, i32, i32, ptr, ptr, ptr, i32, i32, i32, i32, ptr, ptr, [6 x ptr] }
%struct._zend_op = type { ptr, %union._znode_op, %union._znode_op, %union._znode_op, i32, i32, i8, i8, i8, i8 }
%union._znode_op = type { i32 }
%struct._zend_array = type { %struct._zend_refcounted_h, %union.anon.4, i32, %union.anon.6, i32, i32, i32, i32, i64, ptr }
%struct._zend_refcounted_h = type { i32, %union.anon.3 }
%union.anon.3 = type { i32 }
%union.anon.4 = type { i32 }
%union.anon.6 = type { ptr }
%struct.zend_get_gc_buffer = type { ptr, ptr, ptr }
%struct._zend_call_stack = type { ptr, i64 }
%struct._zend_strtod_state = type { [8 x ptr], ptr, ptr }
%struct._zend_llist = type { ptr, ptr, i64, i64, ptr, i8, ptr }
%struct._zend_module_entry = type { i16, i32, i8, i8, ptr, ptr, ptr, ptr, ptr, ptr, ptr, ptr, ptr, ptr, i64, ptr, ptr, ptr, ptr, i32, i8, ptr, i32, ptr }
%struct._zend_execute_data = type { ptr, ptr, ptr, ptr, %struct._zval_struct, ptr, ptr, ptr, ptr }
%struct.anon.0 = type { i8, i8, %union.anon.1 }
%union.anon.1 = type { i16 }
%struct._Bucket = type { %struct._zval_struct, i64, ptr }

@executor_globals = external global %struct._zend_executor_globals, align 8
@.str.38 = private unnamed_addr constant [3 x i8] c"|b\00", align 1
@zend_extensions = external global %struct._zend_llist, align 8
@module_registry = external global %struct._zend_array, align 8

; Function Attrs: alwaysinline nounwind uwtable
define internal zeroext i8 @zval_get_type(ptr noundef %0) #5 {
  %2 = alloca ptr, align 8
  store ptr %0, ptr %2, align 8, !tbaa !67
  %3 = load ptr, ptr %2, align 8, !tbaa !67
  %4 = getelementptr inbounds nuw %struct._zval_struct, ptr %3, i32 0, i32 1
  %5 = getelementptr inbounds nuw %struct.anon.0, ptr %4, i32 0, i32 0
  %6 = load i8, ptr %5, align 8, !tbaa !31
  ret i8 %6
}

; Function Attrs: nounwind uwtable
define hidden void @zif_get_loaded_extensions(ptr noundef %0, ptr noundef %1) #0 {
  %3 = alloca ptr, align 8
  %4 = alloca ptr, align 8
  %5 = alloca i8, align 1
  %6 = alloca i32, align 4
  %7 = alloca ptr, align 8
  %8 = alloca ptr, align 8
  %9 = alloca ptr, align 8
  %10 = alloca ptr, align 8
  %11 = alloca ptr, align 8
  %12 = alloca ptr, align 8
  %13 = alloca ptr, align 8
  store ptr %0, ptr %3, align 8, !tbaa !66
  store ptr %1, ptr %4, align 8, !tbaa !67
  call void @llvm.lifetime.start.p0(i64 1, ptr %5) #14
  store i8 0, ptr %5, align 1, !tbaa !70
  %14 = load ptr, ptr %3, align 8, !tbaa !66
  %15 = getelementptr inbounds nuw %struct._zend_execute_data, ptr %14, i32 0, i32 4
  %16 = getelementptr inbounds nuw %struct._zval_struct, ptr %15, i32 0, i32 2
  %17 = load i32, ptr %16, align 4, !tbaa !31
  %18 = call i32 (i32, ptr, ...) @zend_parse_parameters(i32 noundef %17, ptr noundef @.str.38, ptr noundef %5)
  %19 = icmp eq i32 %18, -1
  br i1 %19, label %20, label %26

20:                                               ; preds = %2
  br label %21

21:                                               ; preds = %20
  %22 = load ptr, ptr getelementptr inbounds nuw (%struct._zend_executor_globals, ptr @executor_globals, i32 0, i32 54), align 8, !tbaa !75
  %23 = icmp ne ptr %22, null
  call void @llvm.assume(i1 %23)
  store i32 1, ptr %6, align 4
  br label %98

24:                                               ; No predecessors!
  br label %25

25:                                               ; preds = %24
  br label %26

26:                                               ; preds = %25, %2
  br label %27

27:                                               ; preds = %26
  call void @llvm.lifetime.start.p0(i64 8, ptr %7) #14
  %28 = call ptr @_zend_new_array_0()
  store ptr %28, ptr %7, align 8, !tbaa !83
  call void @llvm.lifetime.start.p0(i64 8, ptr %8) #14
  %29 = load ptr, ptr %4, align 8, !tbaa !67
  store ptr %29, ptr %8, align 8, !tbaa !67
  %30 = load ptr, ptr %7, align 8, !tbaa !83
  %31 = load ptr, ptr %8, align 8, !tbaa !67
  %32 = getelementptr inbounds nuw %struct._zval_struct, ptr %31, i32 0, i32 0
  store ptr %30, ptr %32, align 8, !tbaa !31
  %33 = load ptr, ptr %8, align 8, !tbaa !67
  %34 = getelementptr inbounds nuw %struct._zval_struct, ptr %33, i32 0, i32 1
  store i32 775, ptr %34, align 8, !tbaa !31
  call void @llvm.lifetime.end.p0(i64 8, ptr %8) #14
  call void @llvm.lifetime.end.p0(i64 8, ptr %7) #14
  br label %35

35:                                               ; preds = %27
  br label %36

36:                                               ; preds = %35
  %37 = load i8, ptr %5, align 1, !tbaa !70, !range !71, !noundef !72
  %38 = trunc i8 %37 to i1
  br i1 %38, label %39, label %41

39:                                               ; preds = %36
  %40 = load ptr, ptr %4, align 8, !tbaa !67
  call void @zend_llist_apply_with_argument(ptr noundef @zend_extensions, ptr noundef @add_zendext_info, ptr noundef %40)
  br label %97

41:                                               ; preds = %36
  call void @llvm.lifetime.start.p0(i64 8, ptr %9) #14
  br label %42

42:                                               ; preds = %41
  call void @llvm.lifetime.start.p0(i64 8, ptr %10) #14
  store ptr @module_registry, ptr %10, align 8, !tbaa !83
  call void @llvm.lifetime.start.p0(i64 8, ptr %11) #14
  %43 = load ptr, ptr %10, align 8, !tbaa !83
  %44 = getelementptr inbounds nuw %struct._zend_array, ptr %43, i32 0, i32 3
  %45 = load ptr, ptr %44, align 8, !tbaa !31
  %46 = getelementptr inbounds %struct._Bucket, ptr %45, i64 0
  store ptr %46, ptr %11, align 8, !tbaa !123
  call void @llvm.lifetime.start.p0(i64 8, ptr %12) #14
  %47 = load ptr, ptr %10, align 8, !tbaa !83
  %48 = getelementptr inbounds nuw %struct._zend_array, ptr %47, i32 0, i32 3
  %49 = load ptr, ptr %48, align 8, !tbaa !31
  %50 = load ptr, ptr %10, align 8, !tbaa !83
  %51 = getelementptr inbounds nuw %struct._zend_array, ptr %50, i32 0, i32 4
  %52 = load i32, ptr %51, align 8, !tbaa !103
  %53 = zext i32 %52 to i64
  %54 = getelementptr inbounds nuw %struct._Bucket, ptr %49, i64 %53
  store ptr %54, ptr %12, align 8, !tbaa !123
  %55 = load ptr, ptr %10, align 8, !tbaa !83
  %56 = getelementptr inbounds nuw %struct._zend_array, ptr %55, i32 0, i32 1
  %57 = load i32, ptr %56, align 8, !tbaa !31
  %58 = and i32 %57, 4
  %59 = icmp ne i32 %58, 0
  %60 = xor i1 %59, true
  call void @llvm.assume(i1 %60)
  br label %61

61:                                               ; preds = %91, %42
  %62 = load ptr, ptr %11, align 8, !tbaa !123
  %63 = load ptr, ptr %12, align 8, !tbaa !123
  %64 = icmp ne ptr %62, %63
  br i1 %64, label %65, label %94

65:                                               ; preds = %61
  call void @llvm.lifetime.start.p0(i64 8, ptr %13) #14
  %66 = load ptr, ptr %11, align 8, !tbaa !123
  %67 = getelementptr inbounds nuw %struct._Bucket, ptr %66, i32 0, i32 0
  store ptr %67, ptr %13, align 8, !tbaa !67
  %68 = load ptr, ptr %13, align 8, !tbaa !67
  %69 = call zeroext i8 @zval_get_type(ptr noundef %68)
  %70 = zext i8 %69 to i32
  %71 = icmp eq i32 %70, 0
  %72 = xor i1 %71, true
  %73 = xor i1 %72, true
  %74 = zext i1 %73 to i32
  %75 = sext i32 %74 to i64
  %76 = call i64 @llvm.expect.i64(i64 %75, i64 0)
  %77 = icmp ne i64 %76, 0
  br i1 %77, label %78, label %79

78:                                               ; preds = %65
  store i32 10, ptr %6, align 4
  br label %88

79:                                               ; preds = %65
  %80 = load ptr, ptr %13, align 8, !tbaa !67
  %81 = getelementptr inbounds nuw %struct._zval_struct, ptr %80, i32 0, i32 0
  %82 = load ptr, ptr %81, align 8, !tbaa !31
  store ptr %82, ptr %9, align 8, !tbaa !33
  %83 = load ptr, ptr %4, align 8, !tbaa !67
  %84 = load ptr, ptr %9, align 8, !tbaa !33
  %85 = getelementptr inbounds nuw %struct._zend_module_entry, ptr %84, i32 0, i32 6
  %86 = load ptr, ptr %85, align 8, !tbaa !189
  %87 = call i32 @add_next_index_string(ptr noundef %83, ptr noundef %86)
  store i32 0, ptr %6, align 4
  br label %88

88:                                               ; preds = %79, %78
  call void @llvm.lifetime.end.p0(i64 8, ptr %13) #14
  %89 = load i32, ptr %6, align 4
  switch i32 %89, label %101 [
    i32 0, label %90
    i32 10, label %91
  ]

90:                                               ; preds = %88
  br label %91

91:                                               ; preds = %90, %88
  %92 = load ptr, ptr %11, align 8, !tbaa !123
  %93 = getelementptr inbounds nuw %struct._Bucket, ptr %92, i32 1
  store ptr %93, ptr %11, align 8, !tbaa !123
  br label %61

94:                                               ; preds = %61
  call void @llvm.lifetime.end.p0(i64 8, ptr %12) #14
  call void @llvm.lifetime.end.p0(i64 8, ptr %11) #14
  call void @llvm.lifetime.end.p0(i64 8, ptr %10) #14
  br label %95

95:                                               ; preds = %94
  br label %96

96:                                               ; preds = %95
  call void @llvm.lifetime.end.p0(i64 8, ptr %9) #14
  br label %97

97:                                               ; preds = %96, %39
  store i32 0, ptr %6, align 4
  br label %98

98:                                               ; preds = %97, %21
  call void @llvm.lifetime.end.p0(i64 1, ptr %5) #14
  %99 = load i32, ptr %6, align 4
  switch i32 %99, label %101 [
    i32 0, label %100
    i32 1, label %100
  ]

100:                                              ; preds = %98, %98
  ret void

101:                                              ; preds = %98, %88
  unreachable
}