; Function Attrs: nounwind uwtable
define hidden void @zif_get_loaded_extensions(ptr noundef readonly captures(none) %0, ptr noundef %1) #0 {
  %3 = alloca i8, align 1
  call void @llvm.lifetime.start.p0(i64 1, ptr nonnull %3) #14
  store i8 0, ptr %3, align 1, !tbaa !110
  %4 = getelementptr inbounds nuw i8, ptr %0, i64 44
  %5 = load i32, ptr %4, align 4, !tbaa !28
  %6 = call i32 (i32, ptr, ...) @zend_parse_parameters(i32 noundef %5, ptr noundef nonnull @.str.38, ptr noundef nonnull %3) #14
  %7 = icmp eq i32 %6, -1
  br i1 %7, label %8, label %11

8:                                                ; preds = %2
  %9 = load ptr, ptr getelementptr inbounds nuw (i8, ptr @executor_globals, i64 960), align 8, !tbaa !67
  %10 = icmp ne ptr %9, null
  call void @llvm.assume(i1 %10)
  br label %.loopexit

11:                                               ; preds = %2
  %12 = call ptr @_zend_new_array_0() #14
  store ptr %12, ptr %1, align 8, !tbaa !28
  %13 = getelementptr inbounds nuw i8, ptr %1, i64 8
  store i32 775, ptr %13, align 8, !tbaa !28
  %14 = load i8, ptr %3, align 1, !tbaa !110, !range !73, !noundef !74
  %15 = trunc nuw i8 %14 to i1
  br i1 %15, label %16, label %17

16:                                               ; preds = %11
  call void @zend_llist_apply_with_argument(ptr noundef nonnull @zend_extensions, ptr noundef nonnull @add_zendext_info, ptr noundef nonnull %1) #14
  br label %.loopexit

17:                                               ; preds = %11
  %18 = load ptr, ptr getelementptr inbounds nuw (i8, ptr @module_registry, i64 16), align 8, !tbaa !28
  %19 = load i32, ptr getelementptr inbounds nuw (i8, ptr @module_registry, i64 24), align 8, !tbaa !90
  %20 = zext i32 %19 to i64
  %21 = getelementptr inbounds nuw %struct._Bucket, ptr %18, i64 %20
  %22 = load i32, ptr getelementptr inbounds nuw (i8, ptr @module_registry, i64 8), align 8, !tbaa !28
  %23 = and i32 %22, 4
  %.not = icmp eq i32 %23, 0
  call void @llvm.assume(i1 %.not)
  %.not1819 = icmp eq i32 %19, 0
  br i1 %.not1819, label %.loopexit, label %.lr.ph

.lr.ph:                                           ; preds = %17, %32
  %.020 = phi ptr [ %33, %32 ], [ %18, %17 ]
  %24 = getelementptr inbounds nuw i8, ptr %.020, i64 8
  %25 = load i8, ptr %24, align 8, !tbaa !28
  %26 = icmp eq i8 %25, 0
  br i1 %26, label %32, label %27, !prof !62

27:                                               ; preds = %.lr.ph
  %28 = load ptr, ptr %.020, align 8, !tbaa !28
  %29 = getelementptr inbounds nuw i8, ptr %28, i64 32
  %30 = load ptr, ptr %29, align 8, !tbaa !173
  %31 = call i32 @add_next_index_string(ptr noundef nonnull %1, ptr noundef %30) #14
  br label %32

32:                                               ; preds = %.lr.ph, %27
  %33 = getelementptr inbounds nuw i8, ptr %.020, i64 32
  %.not18 = icmp eq ptr %33, %21
  br i1 %.not18, label %.loopexit, label %.lr.ph

.loopexit:                                        ; preds = %32, %17, %16, %8
  call void @llvm.lifetime.end.p0(i64 1, ptr nonnull %3) #14
  ret void
}